; Function Attrs: mustprogress nounwind uwtable
define void @_ZN4base14FileEnumeratorD2Ev(ptr noundef nonnull align 8 dereferenceable(184) %0) unnamed_addr #5 align 2 personality ptr @__gxx_personality_v0 {
  %2 = getelementptr inbounds nuw i8, ptr %0, i64 104
  tail call void @_ZNSt5dequeIN4base8FilePathESaIS1_EED2Ev(ptr noundef nonnull align 8 dereferenceable(80) %2) #17
  %3 = getelementptr inbounds nuw i8, ptr %0, i64 72
  %4 = load ptr, ptr %3, align 8, !tbaa !40
  %5 = getelementptr inbounds nuw i8, ptr %0, i64 88
  %6 = icmp eq ptr %4, %5
  br i1 %6, label %_ZNKSt7__cxx1112basic_stringIcSt11char_traitsIcESaIcEE11_M_is_localEv.exit.thread.i.i, label %_ZNKSt7__cxx1112basic_stringIcSt11char_traitsIcESaIcEE11_M_is_localEv.exit.i.i

_ZNKSt7__cxx1112basic_stringIcSt11char_traitsIcESaIcEE11_M_is_localEv.exit.thread.i.i: ; preds = %1
  %7 = getelementptr inbounds nuw i8, ptr %0, i64 80
  %8 = load i64, ptr %7, align 8, !tbaa !36
  %9 = icmp ult i64 %8, 16
  tail call void @llvm.assume(i1 %9)
  br label %_ZNSt7__cxx1112basic_stringIcSt11char_traitsIcESaIcEED2Ev.exit

_ZNKSt7__cxx1112basic_stringIcSt11char_traitsIcESaIcEE11_M_is_localEv.exit.i.i: ; preds = %1
  tail call void @_ZdlPv(ptr noundef %4) #18
  br label %_ZNSt7__cxx1112basic_stringIcSt11char_traitsIcESaIcEED2Ev.exit

_ZNSt7__cxx1112basic_stringIcSt11char_traitsIcESaIcEED2Ev.exit: ; preds = %_ZNKSt7__cxx1112basic_stringIcSt11char_traitsIcESaIcEE11_M_is_localEv.exit.thread.i.i, %_ZNKSt7__cxx1112basic_stringIcSt11char_traitsIcESaIcEE11_M_is_localEv.exit.i.i
  %10 = getelementptr inbounds nuw i8, ptr %0, i64 32
  tail call void @_ZN4base8FilePathD1Ev(ptr noundef nonnull align 8 dereferenceable(32) %10) #17
  %11 = load ptr, ptr %0, align 8, !tbaa !41
  %12 = getelementptr inbounds nuw i8, ptr %0, i64 8
  %13 = load ptr, ptr %12, align 8, !tbaa !42
  %.not4.i.i.i.i = icmp eq ptr %11, %13
  br i1 %.not4.i.i.i.i, label %_ZSt8_DestroyIPN4base14FileEnumerator8FileInfoES2_EvT_S4_RSaIT0_E.exit.i, label %.lr.ph.i.i.i.i

.lr.ph.i.i.i.i:                                   ; preds = %_ZNSt7__cxx1112basic_stringIcSt11char_traitsIcESaIcEED2Ev.exit, %.lr.ph.i.i.i.i
  %.05.i.i.i.i = phi ptr [ %14, %.lr.ph.i.i.i.i ], [ %11, %_ZNSt7__cxx1112basic_stringIcSt11char_traitsIcESaIcEED2Ev.exit ]
  tail call void @_ZN4base14FileEnumerator8FileInfoD1Ev(ptr noundef nonnull align 8 dereferenceable(176) %.05.i.i.i.i) #17
  %14 = getelementptr inbounds nuw i8, ptr %.05.i.i.i.i, i64 176
  %.not.i.i.i.i = icmp eq ptr %14, %13
  br i1 %.not.i.i.i.i, label %_ZSt8_DestroyIPN4base14FileEnumerator8FileInfoES2_EvT_S4_RSaIT0_E.exitthread-pre-split.i, label %.lr.ph.i.i.i.i, !llvm.loop !43

_ZSt8_DestroyIPN4base14FileEnumerator8FileInfoES2_EvT_S4_RSaIT0_E.exitthread-pre-split.i: ; preds = %.lr.ph.i.i.i.i
  %.pr.i = load ptr, ptr %0, align 8, !tbaa !41
  br label %_ZSt8_DestroyIPN4base14FileEnumerator8FileInfoES2_EvT_S4_RSaIT0_E.exit.i

_ZSt8_DestroyIPN4base14FileEnumerator8FileInfoES2_EvT_S4_RSaIT0_E.exit.i: ; preds = %_ZSt8_DestroyIPN4base14FileEnumerator8FileInfoES2_EvT_S4_RSaIT0_E.exitthread-pre-split.i, %_ZNSt7__cxx1112basic_stringIcSt11char_traitsIcESaIcEED2Ev.exit
  %15 = phi ptr [ %.pr.i, %_ZSt8_DestroyIPN4base14FileEnumerator8FileInfoES2_EvT_S4_RSaIT0_E.exitthread-pre-split.i ], [ %11, %_ZNSt7__cxx1112basic_stringIcSt11char_traitsIcESaIcEED2Ev.exit ]
  %.not.i.i.i = icmp eq ptr %15, null
  br i1 %.not.i.i.i, label %_ZNSt6vectorIN4base14FileEnumerator8FileInfoESaIS2_EED2Ev.exit, label %16

16:                                               ; preds = %_ZSt8_DestroyIPN4base14FileEnumerator8FileInfoES2_EvT_S4_RSaIT0_E.exit.i
  tail call void @_ZdlPv(ptr noundef nonnull %15) #18
  br label %_ZNSt6vectorIN4base14FileEnumerator8FileInfoESaIS2_EED2Ev.exit

_ZNSt6vectorIN4base14FileEnumerator8FileInfoESaIS2_EED2Ev.exit: ; preds = %_ZSt8_DestroyIPN4base14FileEnumerator8FileInfoES2_EvT_S4_RSaIT0_E.exit.i, %16
  ret void
}